; ModuleID = '17/1360.c'
source_filename = "17/1360.c"
target datalayout = "e-m:e-p270:32:32-p271:32:32-p272:64:64-i64:64-f80:128-n8:16:32:64-S128"
target triple = "x86_64-pc-linux-gnu"

@.str = private unnamed_addr constant [4 x i8] c"%s\0A\00", align 1
@.str.1 = private unnamed_addr constant [2 x i8] c"$\00", align 1
@.str.2 = private unnamed_addr constant [2 x i8] c"?\00", align 1
@.str.3 = private unnamed_addr constant [2 x i8] c" \00", align 1
@.str.4 = private unnamed_addr constant [2 x i8] c"\0A\00", align 1

; Function Attrs: noinline nounwind uwtable
define dso_local i32 @main() #0 {
  %1 = alloca i32, align 4
  %2 = alloca [101 x i8], align 16
  %3 = alloca [101 x i8], align 16
  %4 = alloca [101 x i32], align 16
  %5 = alloca i32, align 4
  %6 = alloca i32, align 4
  %7 = alloca i32, align 4
  %8 = alloca i32, align 4
  store i32 0, i32* %1, align 4
  br label %9

9:                                                ; preds = %119, %0
  %10 = getelementptr inbounds [101 x i8], [101 x i8]* %2, i64 0, i64 0
  %11 = call i32 (i8*, ...) bitcast (i32 (...)* @gets to i32 (i8*, ...)*)(i8* %10)
  %12 = icmp ne i32 %11, 0
  br i1 %12, label %13, label %121

13:                                               ; preds = %9
  %14 = getelementptr inbounds [101 x i8], [101 x i8]* %3, i64 0, i64 0
  %15 = getelementptr inbounds [101 x i8], [101 x i8]* %2, i64 0, i64 0
  %16 = call i8* @strcpy(i8* %14, i8* %15) #4
  %17 = getelementptr inbounds [101 x i8], [101 x i8]* %2, i64 0, i64 0
  %18 = call i64 @strlen(i8* %17) #5
  %19 = trunc i64 %18 to i32
  store i32 %19, i32* %7, align 4
  store i32 0, i32* %5, align 4
  br label %20

20:                                               ; preds = %28, %13
  %21 = load i32, i32* %5, align 4
  %22 = load i32, i32* %7, align 4
  %23 = icmp slt i32 %21, %22
  br i1 %23, label %24, label %31

24:                                               ; preds = %20
  %25 = load i32, i32* %5, align 4
  %26 = sext i32 %25 to i64
  %27 = getelementptr inbounds [101 x i32], [101 x i32]* %4, i64 0, i64 %26
  store i32 1, i32* %27, align 4
  br label %28

28:                                               ; preds = %24
  %29 = load i32, i32* %5, align 4
  %30 = add nsw i32 %29, 1
  store i32 %30, i32* %5, align 4
  br label %20

31:                                               ; preds = %20
  store i32 0, i32* %5, align 4
  br label %32

32:                                               ; preds = %72, %31
  %33 = load i32, i32* %5, align 4
  %34 = load i32, i32* %7, align 4
  %35 = icmp slt i32 %33, %34
  br i1 %35, label %36, label %75

36:                                               ; preds = %32
  %37 = load i32, i32* %5, align 4
  %38 = sext i32 %37 to i64
  %39 = getelementptr inbounds [101 x i8], [101 x i8]* %2, i64 0, i64 %38
  %40 = load i8, i8* %39, align 1
  %41 = sext i8 %40 to i32
  %42 = icmp eq i32 %41, 41
  br i1 %42, label %43, label %71

43:                                               ; preds = %36
  %44 = load i32, i32* %5, align 4
  %45 = sub nsw i32 %44, 1
  store i32 %45, i32* %6, align 4
  br label %46

46:                                               ; preds = %67, %43
  %47 = load i32, i32* %6, align 4
  %48 = icmp sge i32 %47, 0
  br i1 %48, label %49, label %70

49:                                               ; preds = %46
  %50 = load i32, i32* %6, align 4
  %51 = sext i32 %50 to i64
  %52 = getelementptr inbounds [101 x i8], [101 x i8]* %2, i64 0, i64 %51
  %53 = load i8, i8* %52, align 1
  %54 = sext i8 %53 to i32
  %55 = icmp eq i32 %54, 40
  br i1 %55, label %56, label %66

56:                                               ; preds = %49
  %57 = load i32, i32* %6, align 4
  %58 = sext i32 %57 to i64
  %59 = getelementptr inbounds [101 x i32], [101 x i32]* %4, i64 0, i64 %58
  store i32 0, i32* %59, align 4
  %60 = load i32, i32* %5, align 4
  %61 = sext i32 %60 to i64
  %62 = getelementptr inbounds [101 x i32], [101 x i32]* %4, i64 0, i64 %61
  store i32 0, i32* %62, align 4
  %63 = load i32, i32* %6, align 4
  %64 = sext i32 %63 to i64
  %65 = getelementptr inbounds [101 x i8], [101 x i8]* %2, i64 0, i64 %64
  store i8 0, i8* %65, align 1
  br label %70

66:                                               ; preds = %49
  br label %67

67:                                               ; preds = %66
  %68 = load i32, i32* %6, align 4
  %69 = add nsw i32 %68, -1
  store i32 %69, i32* %6, align 4
  br label %46

70:                                               ; preds = %56, %46
  br label %71

71:                                               ; preds = %70, %36
  br label %72

72:                                               ; preds = %71
  %73 = load i32, i32* %5, align 4
  %74 = add nsw i32 %73, 1
  store i32 %74, i32* %5, align 4
  br label %32

75:                                               ; preds = %32
  %76 = getelementptr inbounds [101 x i8], [101 x i8]* %3, i64 0, i64 0
  %77 = call i32 (i8*, ...) @printf(i8* getelementptr inbounds ([4 x i8], [4 x i8]* @.str, i64 0, i64 0), i8* %76)
  store i32 0, i32* %8, align 4
  br label %78

78:                                               ; preds = %116, %75
  %79 = load i32, i32* %8, align 4
  %80 = load i32, i32* %7, align 4
  %81 = icmp slt i32 %79, %80
  br i1 %81, label %82, label %119

82:                                               ; preds = %78
  %83 = load i32, i32* %8, align 4
  %84 = sext i32 %83 to i64
  %85 = getelementptr inbounds [101 x i32], [101 x i32]* %4, i64 0, i64 %84
  %86 = load i32, i32* %85, align 4
  %87 = icmp eq i32 %86, 1
  br i1 %87, label %88, label %97

88:                                               ; preds = %82
  %89 = load i32, i32* %8, align 4
  %90 = sext i32 %89 to i64
  %91 = getelementptr inbounds [101 x i8], [101 x i8]* %3, i64 0, i64 %90
  %92 = load i8, i8* %91, align 1
  %93 = sext i8 %92 to i32
  %94 = icmp eq i32 %93, 40
  br i1 %94, label %95, label %97

95:                                               ; preds = %88
  %96 = call i32 (i8*, ...) @printf(i8* getelementptr inbounds ([2 x i8], [2 x i8]* @.str.1, i64 0, i64 0))
  br label %115

97:                                               ; preds = %88, %82
  %98 = load i32, i32* %8, align 4
  %99 = sext i32 %98 to i64
  %100 = getelementptr inbounds [101 x i32], [101 x i32]* %4, i64 0, i64 %99
  %101 = load i32, i32* %100, align 4
  %102 = icmp eq i32 %101, 1
  br i1 %102, label %103, label %112

103:                                              ; preds = %97
  %104 = load i32, i32* %8, align 4
  %105 = sext i32 %104 to i64
  %106 = getelementptr inbounds [101 x i8], [101 x i8]* %3, i64 0, i64 %105
  %107 = load i8, i8* %106, align 1
  %108 = sext i8 %107 to i32
  %109 = icmp eq i32 %108, 41
  br i1 %109, label %110, label %112

110:                                              ; preds = %103
  %111 = call i32 (i8*, ...) @printf(i8* getelementptr inbounds ([2 x i8], [2 x i8]* @.str.2, i64 0, i64 0))
  br label %114

112:                                              ; preds = %103, %97
  %113 = call i32 (i8*, ...) @printf(i8* getelementptr inbounds ([2 x i8], [2 x i8]* @.str.3, i64 0, i64 0))
  br label %114

114:                                              ; preds = %112, %110
  br label %115

115:                                              ; preds = %114, %95
  br label %116

116:                                              ; preds = %115
  %117 = load i32, i32* %8, align 4
  %118 = add nsw i32 %117, 1
  store i32 %118, i32* %8, align 4
  br label %78

119:                                              ; preds = %78
  %120 = call i32 (i8*, ...) @printf(i8* getelementptr inbounds ([2 x i8], [2 x i8]* @.str.4, i64 0, i64 0))
  br label %9

121:                                              ; preds = %9
  %122 = load i32, i32* %1, align 4
  ret i32 %122
}

declare dso_local i32 @gets(...) #1

; Function Attrs: nounwind
declare dso_local i8* @strcpy(i8*, i8*) #2

; Function Attrs: nounwind readonly
declare dso_local i64 @strlen(i8*) #3

declare dso_local i32 @printf(i8*, ...) #1


!llvm.module.flags = !{!0}
!llvm.ident = !{!1}

!0 = !{i32 1, !"wchar_size", i32 4}
!1 = !{!"clang version 10.0.0-4ubuntu1 "}
